; Function Attrs: mustprogress nofree norecurse nosync nounwind willreturn memory(argmem: read) uwtable
define noundef i32 @_ZNK10open_spiel11leduc_poker9LeducGame17MaxChanceOutcomesEv(ptr nocapture noundef nonnull readonly align 8 dereferenceable(322) %0) unnamed_addr #7 align 2 {
  %2 = getelementptr inbounds nuw i8, ptr %0, i64 321
  %3 = load i8, ptr %2, align 1
  %4 = trunc i8 %3 to i1
  %5 = getelementptr inbounds nuw i8, ptr %0, i64 316
  %6 = load i32, ptr %5, align 4
  %7 = sdiv i32 %6, 2
  %.0 = select i1 %4, i32 %7, i32 %6
  ret i32 %.0
}